(dp0
S'x'
p1
I18
sS'c'
p2
I7
sS'b'
p3
I14
sS'e'
p4
I17
sS'd'
p5
I9
sS'g'
p6
I1
sS'f'
p7
I15
sS'm'
p8
I4
sS'n'
p9
I0
sS'p'
p10
I5
sS'3'
p11
I6
sS'2'
p12
I8
sS'5'
p13
I13
sS'4'
p14
I2
sS'7'
p15
I10
sS'6'
p16
I3
sS'y'
p17
I12
sS'8'
p18
I11
sS'w'
p19
I16
s.